; Function Attrs: nounwind uwtable
define hidden void @BrotliDestroyBlockSplit(ptr noundef %0, ptr noundef captures(none) %1) local_unnamed_addr #1 {
  %3 = getelementptr inbounds nuw i8, ptr %1, i64 16
  %4 = load ptr, ptr %3, align 8, !tbaa !3
  tail call void @BrotliFree(ptr noundef %0, ptr noundef %4) #8
  store ptr null, ptr %3, align 8, !tbaa !3
  %5 = getelementptr inbounds nuw i8, ptr %1, i64 24
  %6 = load ptr, ptr %5, align 8, !tbaa !11
  tail call void @BrotliFree(ptr noundef %0, ptr noundef %6) #8
  store ptr null, ptr %5, align 8, !tbaa !11
  ret void
}